; Function Attrs: mustprogress uwtable
define noundef zeroext i1 @_ZN2cv8CholeskyEPdmiS0_mi(ptr noundef %0, i64 noundef %1, i32 noundef %2, ptr noundef %3, i64 noundef %4, i32 noundef %5) local_unnamed_addr #0 personality ptr @__gxx_personality_v0 {
  %7 = alloca %"class.cv::utils::trace::details::Region", align 8
  call void @llvm.lifetime.start.p0(i64 16, ptr nonnull %7) #17
  call void @_ZN2cv5utils5trace7details6RegionC1ERKNS3_21LocationStaticStorageE(ptr noundef nonnull align 8 dereferenceable(12) %7, ptr noundef nonnull align 8 dereferenceable(32) @_ZZN2cv8CholeskyEPdmiS0_miE24__cv_trace_location_fn91)
  %8 = invoke noundef zeroext i1 @_ZN2cv3hal11Cholesky64fEPdmiS1_mi(ptr noundef %0, i64 noundef %1, i32 noundef %2, ptr noundef %3, i64 noundef %4, i32 noundef %5)
          to label %9 unwind label %16

9:                                                ; preds = %6
  %10 = getelementptr inbounds nuw i8, ptr %7, i64 8
  %11 = load i32, ptr %10, align 8, !tbaa !3
  %.not.i = icmp eq i32 %11, 0
  br i1 %.not.i, label %_ZN2cv5utils5trace7details6RegionD2Ev.exit, label %12

12:                                               ; preds = %9
  invoke void @_ZN2cv5utils5trace7details6Region7destroyEv(ptr noundef nonnull align 8 dereferenceable(12) %7)
          to label %_ZN2cv5utils5trace7details6RegionD2Ev.exit unwind label %13

13:                                               ; preds = %12
  %14 = landingpad { ptr, i32 }
          catch ptr null
  %15 = extractvalue { ptr, i32 } %14, 0
  call void @__clang_call_terminate(ptr %15) #18
  unreachable

_ZN2cv5utils5trace7details6RegionD2Ev.exit:       ; preds = %9, %12
  call void @llvm.lifetime.end.p0(i64 16, ptr nonnull %7) #17
  ret i1 %8

16:                                               ; preds = %6
  %17 = landingpad { ptr, i32 }
          cleanup
  call void @_ZN2cv5utils5trace7details6RegionD2Ev(ptr noundef nonnull align 8 dereferenceable(12) %7) #17
  call void @llvm.lifetime.end.p0(i64 16, ptr nonnull %7) #17
  resume { ptr, i32 } %17
}